(lp1
(lp2
I459
aI625
aI631
aI410
aI537
aI613
aI520
aI589
aa(lp3
I739
aI656
aI496
aI570
aI591
aI584
aI631
aI623
aa(lp4
I598
aI639
aI646
aI655
aI750
aI721
aI716
aI727
aa(lp5
I572
aI588
aI523
aI559
aI509
aI552
aI618
aI539
aa.