(lp1
(lp2
I348
aI523
aI530
aI272
aI417
aI507
aI382
aI436
aa(lp3
I666
aI548
aI359
aI432
aI456
aI458
aI511
aI527
aa(lp4
I495
aI531
aI541
aI543
aI652
aI634
aI625
aI634
aa(lp5
I427
aI455
aI394
aI421
aI359
aI421
aI471
aI388
aa.